target datalayout = "e-m:e-p270:32:32-p271:32:32-p272:64:64-i64:64-i128:128-f80:128-n8:16:32:64-S128"
target triple = "x86_64-unknown-linux-gnu"

%"struct.node::AssertionInfo" = type { ptr, ptr, ptr }
%"class.v8::IndirectHandleBase" = type { ptr }
%"class.node::cares_wrap::ChannelWrap" = type { %"class.node::AsyncWrap", ptr, ptr, i8, i8, i8, i32, i32, i32, %"class.std::unordered_set" }
%"class.node::AsyncWrap" = type { %"class.node::BaseObject", i32, i8, double, double }
%"class.node::BaseObject" = type { %"class.node::MemoryRetainer", %"class.v8::Global", ptr, ptr }
%"class.node::MemoryRetainer" = type { ptr }
%"class.v8::Global" = type { %"class.v8::PersistentBase" }
%"class.v8::PersistentBase" = type { %"class.v8::IndirectHandleBase" }
%"class.std::unordered_set" = type { %"class.std::_Hashtable" }
%"class.std::_Hashtable" = type { ptr, i64, %"struct.std::__detail::_Hash_node_base", i64, %"struct.std::__detail::_Prime_rehash_policy", ptr }
%"struct.std::__detail::_Hash_node_base" = type { ptr }
%"struct.std::__detail::_Prime_rehash_policy" = type { float, i64 }
%struct.uv__queue = type { ptr, ptr }
%struct.uv_timer_s = type { ptr, ptr, i32, ptr, %struct.uv__queue, %union.anon, ptr, i32, ptr, [3 x ptr], i64, i64, i64 }
%union.anon = type { [4 x ptr] }

@_ZZN4node10cares_wrap11ChannelWrap11AresTimeoutEP10uv_timer_sE4args = internal constant %"struct.node::AssertionInfo" { ptr @.str.13, ptr @.str.14, ptr @.str.15 }, align 8
@_ZZN4node10cares_wrap11ChannelWrap11AresTimeoutEP10uv_timer_sE4args_0 = internal constant %"struct.node::AssertionInfo" { ptr @.str.16, ptr @.str.17, ptr @.str.15 }, align 8

; Function Attrs: mustprogress nounwind uwtable
define linkonce_odr dso_local noundef i64 @_ZNKSt10_HashtableIPN4node10cares_wrap12NodeAresTaskES3_SaIS3_ENSt8__detail9_IdentityENS2_5EqualENS2_4HashENS5_18_Mod_range_hashingENS5_20_Default_ranged_hashENS5_20_Prime_rehash_policyENS5_17_Hashtable_traitsILb1ELb1ELb1EEEE4sizeEv(ptr noundef nonnull align 8 dereferenceable(56) %this) #4 comdat align 2 {
entry:
  %this.addr = alloca ptr, align 8
  store ptr %this, ptr %this.addr, align 8
  %this1 = load ptr, ptr %this.addr, align 8
  %_M_element_count = getelementptr inbounds %"class.std::_Hashtable", ptr %this1, i32 0, i32 3
  %0 = load i64, ptr %_M_element_count, align 8
  ret i64 %0
}

; Function Attrs: mustprogress nounwind uwtable
define linkonce_odr dso_local noundef zeroext i1 @_ZNKSt10_HashtableIPN4node10cares_wrap12NodeAresTaskES3_SaIS3_ENSt8__detail9_IdentityENS2_5EqualENS2_4HashENS5_18_Mod_range_hashingENS5_20_Default_ranged_hashENS5_20_Prime_rehash_policyENS5_17_Hashtable_traitsILb1ELb1ELb1EEEE5emptyEv(ptr noundef nonnull align 8 dereferenceable(56) %this) #4 comdat align 2 {
entry:
  %this.addr = alloca ptr, align 8
  store ptr %this, ptr %this.addr, align 8
  %this1 = load ptr, ptr %this.addr, align 8
  %call = call noundef i64 @_ZNKSt10_HashtableIPN4node10cares_wrap12NodeAresTaskES3_SaIS3_ENSt8__detail9_IdentityENS2_5EqualENS2_4HashENS5_18_Mod_range_hashingENS5_20_Default_ranged_hashENS5_20_Prime_rehash_policyENS5_17_Hashtable_traitsILb1ELb1ELb1EEEE4sizeEv(ptr noundef nonnull align 8 dereferenceable(56) %this1) #3
  %cmp = icmp eq i64 %call, 0
  ret i1 %cmp
}

; Function Attrs: mustprogress nounwind uwtable
define linkonce_odr dso_local noundef ptr @_ZN4node10cares_wrap11ChannelWrap13cares_channelEv(ptr noundef nonnull align 8 dereferenceable(144) %this) #4 comdat align 2 {
entry:
  %this.addr = alloca ptr, align 8
  store ptr %this, ptr %this.addr, align 8
  %this1 = load ptr, ptr %this.addr, align 8
  %channel_ = getelementptr inbounds %"class.node::cares_wrap::ChannelWrap", ptr %this1, i32 0, i32 2
  %0 = load ptr, ptr %channel_, align 8
  ret ptr %0
}

; Function Attrs: mustprogress nounwind uwtable
define linkonce_odr dso_local noundef zeroext i1 @_ZNKSt13unordered_setIPN4node10cares_wrap12NodeAresTaskENS2_4HashENS2_5EqualESaIS3_EE5emptyEv(ptr noundef nonnull align 8 dereferenceable(56) %this) #4 comdat align 2 {
entry:
  %this.addr = alloca ptr, align 8
  store ptr %this, ptr %this.addr, align 8
  %this1 = load ptr, ptr %this.addr, align 8
  %_M_h = getelementptr inbounds %"class.std::unordered_set", ptr %this1, i32 0, i32 0
  %call = call noundef zeroext i1 @_ZNKSt10_HashtableIPN4node10cares_wrap12NodeAresTaskES3_SaIS3_ENSt8__detail9_IdentityENS2_5EqualENS2_4HashENS5_18_Mod_range_hashingENS5_20_Default_ranged_hashENS5_20_Prime_rehash_policyENS5_17_Hashtable_traitsILb1ELb1ELb1EEEE5emptyEv(ptr noundef nonnull align 8 dereferenceable(56) %_M_h) #3
  ret i1 %call
}

; Function Attrs: mustprogress nounwind uwtable
define linkonce_odr dso_local noundef ptr @_ZN4node10cares_wrap11ChannelWrap9task_listEv(ptr noundef nonnull align 8 dereferenceable(144) %this) #4 comdat align 2 {
entry:
  %this.addr = alloca ptr, align 8
  store ptr %this, ptr %this.addr, align 8
  %this1 = load ptr, ptr %this.addr, align 8
  %task_list_ = getelementptr inbounds %"class.node::cares_wrap::ChannelWrap", ptr %this1, i32 0, i32 9
  ret ptr %task_list_
}

; Function Attrs: mustprogress nounwind uwtable
define linkonce_odr dso_local noundef ptr @_ZN4node10cares_wrap11ChannelWrap12timer_handleEv(ptr noundef nonnull align 8 dereferenceable(144) %this) #4 comdat align 2 {
entry:
  %this.addr = alloca ptr, align 8
  store ptr %this, ptr %this.addr, align 8
  %this1 = load ptr, ptr %this.addr, align 8
  %timer_handle_ = getelementptr inbounds %"class.node::cares_wrap::ChannelWrap", ptr %this1, i32 0, i32 1
  %0 = load ptr, ptr %timer_handle_, align 8
  ret ptr %0
}

; Function Attrs: mustprogress nounwind uwtable
define dso_local void @_ZN4node10cares_wrap11ChannelWrap11AresTimeoutEP10uv_timer_s(ptr noundef %handle) #4 align 2 {
entry:
  %handle.addr = alloca ptr, align 8
  %channel = alloca ptr, align 8
  store ptr %handle, ptr %handle.addr, align 8
  %0 = load ptr, ptr %handle.addr, align 8
  %data = getelementptr inbounds %struct.uv_timer_s, ptr %0, i32 0, i32 0
  %1 = load ptr, ptr %data, align 8
  store ptr %1, ptr %channel, align 8
  br label %do.body

do.body:                                          ; preds = %entry
  %2 = load ptr, ptr %channel, align 8
  %call = call noundef ptr @_ZN4node10cares_wrap11ChannelWrap12timer_handleEv(ptr noundef nonnull align 8 dereferenceable(144) %2)
  %3 = load ptr, ptr %handle.addr, align 8
  %cmp = icmp eq ptr %call, %3
  %lnot = xor i1 %cmp, true
  %lnot1 = xor i1 %lnot, true
  %lnot2 = xor i1 %lnot1, true
  br i1 %lnot2, label %if.then, label %if.end

if.then:                                          ; preds = %do.body
  br label %do.body3

do.body3:                                         ; preds = %if.then
  call void @_ZN4node6AssertERKNS_13AssertionInfoE(ptr noundef nonnull align 8 dereferenceable(24) @_ZZN4node10cares_wrap11ChannelWrap11AresTimeoutEP10uv_timer_sE4args)
  call void @abort() #16
  unreachable

do.end:                                           ; No predecessors!
  br label %if.end

if.end:                                           ; preds = %do.end, %do.body
  br label %do.end4

do.end4:                                          ; preds = %if.end
  br label %do.body5

do.body5:                                         ; preds = %do.end4
  %4 = load ptr, ptr %channel, align 8
  %call6 = call noundef ptr @_ZN4node10cares_wrap11ChannelWrap9task_listEv(ptr noundef nonnull align 8 dereferenceable(144) %4)
  %call7 = call noundef zeroext i1 @_ZNKSt13unordered_setIPN4node10cares_wrap12NodeAresTaskENS2_4HashENS2_5EqualESaIS3_EE5emptyEv(ptr noundef nonnull align 8 dereferenceable(56) %call6) #3
  %conv = zext i1 %call7 to i32
  %cmp8 = icmp eq i32 0, %conv
  %lnot9 = xor i1 %cmp8, true
  %lnot10 = xor i1 %lnot9, true
  %lnot11 = xor i1 %lnot10, true
  br i1 %lnot11, label %if.then13, label %if.end16

if.then13:                                        ; preds = %do.body5
  br label %do.body14

do.body14:                                        ; preds = %if.then13
  call void @_ZN4node6AssertERKNS_13AssertionInfoE(ptr noundef nonnull align 8 dereferenceable(24) @_ZZN4node10cares_wrap11ChannelWrap11AresTimeoutEP10uv_timer_sE4args_0)
  call void @abort() #16
  unreachable

do.end15:                                         ; No predecessors!
  br label %if.end16

if.end16:                                         ; preds = %do.end15, %do.body5
  br label %do.end17

do.end17:                                         ; preds = %if.end16
  %5 = load ptr, ptr %channel, align 8
  %call18 = call noundef ptr @_ZN4node10cares_wrap11ChannelWrap13cares_channelEv(ptr noundef nonnull align 8 dereferenceable(144) %5)
  call void @ares_process_fd(ptr noundef %call18, i32 noundef -1, i32 noundef -1)
  ret void
}