; Function Attrs: mustprogress nounwind uwtable
define dso_local void @_ZN4node10cares_wrap11ChannelWrap11AresTimeoutEP10uv_timer_s(ptr noundef readonly %handle) #3 align 2 {
entry:
  %0 = load ptr, ptr %handle, align 8
  %timer_handle_.i = getelementptr inbounds i8, ptr %0, i64 56
  %1 = load ptr, ptr %timer_handle_.i, align 8
  %cmp.not = icmp eq ptr %1, %handle
  br i1 %cmp.not, label %do.body5, label %do.body3

do.body3:                                         ; preds = %entry
  tail call void @_ZN4node6AssertERKNS_13AssertionInfoE(ptr noundef nonnull align 8 dereferenceable(24) @_ZZN4node10cares_wrap11ChannelWrap11AresTimeoutEP10uv_timer_sE4args) #20
  tail call void @abort() #23
  unreachable

do.body5:                                         ; preds = %entry
  %_M_element_count.i.i.i = getelementptr inbounds i8, ptr %0, i64 112
  %2 = load i64, ptr %_M_element_count.i.i.i, align 8
  %cmp.i.i = icmp eq i64 %2, 0
  br i1 %cmp.i.i, label %do.body14, label %do.end17

do.body14:                                        ; preds = %do.body5
  tail call void @_ZN4node6AssertERKNS_13AssertionInfoE(ptr noundef nonnull align 8 dereferenceable(24) @_ZZN4node10cares_wrap11ChannelWrap11AresTimeoutEP10uv_timer_sE4args_0) #20
  tail call void @abort() #23
  unreachable

do.end17:                                         ; preds = %do.body5
  %channel_.i = getelementptr inbounds i8, ptr %0, i64 64
  %3 = load ptr, ptr %channel_.i, align 8
  tail call void @ares_process_fd(ptr noundef %3, i32 noundef -1, i32 noundef -1) #20
  ret void
}